target datalayout = "e-m:e-p270:32:32-p271:32:32-p272:64:64-i64:64-i128:128-f80:128-n8:16:32:64-S128"
target triple = "x86_64-pc-linux-gnu"

%struct._rio = type { ptr, ptr, ptr, ptr, ptr, i64, i64, i64, i64, %union.anon }
%union.anon = type { %struct.anon.2 }
%struct.anon.2 = type { ptr, i64, ptr, i64, i64 }

@.str.49 = private unnamed_addr constant [43 x i8] c"Error reading integer from module %s value\00", align 1
@.str.50 = private unnamed_addr constant [42 x i8] c"Error reading string from module %s value\00", align 1
@.str.51 = private unnamed_addr constant [41 x i8] c"Error reading float from module %s value\00", align 1
@.str.52 = private unnamed_addr constant [42 x i8] c"Error reading double from module %s value\00", align 1
@.str.53 = private unnamed_addr constant [19 x i8] c"module-dummy-value\00", align 1

; Function Attrs: inlinehint nounwind uwtable
define internal i64 @rioRead(ptr noundef %0, ptr noundef %1, i64 noundef %2) #6 {
  %4 = alloca i64, align 8
  %5 = alloca ptr, align 8
  %6 = alloca ptr, align 8
  %7 = alloca i64, align 8
  %8 = alloca i64, align 8
  %9 = alloca i32, align 4
  store ptr %0, ptr %5, align 8, !tbaa !53
  store ptr %1, ptr %6, align 8, !tbaa !55
  store i64 %2, ptr %7, align 8, !tbaa !56
  %10 = load ptr, ptr %5, align 8, !tbaa !53
  %11 = getelementptr inbounds nuw %struct._rio, ptr %10, i32 0, i32 6
  %12 = load i64, ptr %11, align 8, !tbaa !57
  %13 = and i64 %12, 5
  %14 = icmp ne i64 %13, 0
  br i1 %14, label %15, label %16

15:                                               ; preds = %3
  store i64 0, ptr %4, align 8
  br label %80

16:                                               ; preds = %3
  br label %17

17:                                               ; preds = %78, %16
  %18 = load i64, ptr %7, align 8, !tbaa !56
  %19 = icmp ne i64 %18, 0
  br i1 %19, label %20, label %79

20:                                               ; preds = %17
  call void @llvm.lifetime.start.p0(i64 8, ptr %8) #15
  %21 = load ptr, ptr %5, align 8, !tbaa !53
  %22 = getelementptr inbounds nuw %struct._rio, ptr %21, i32 0, i32 8
  %23 = load i64, ptr %22, align 8, !tbaa !59
  %24 = icmp ne i64 %23, 0
  br i1 %24, label %25, label %35

25:                                               ; preds = %20
  %26 = load ptr, ptr %5, align 8, !tbaa !53
  %27 = getelementptr inbounds nuw %struct._rio, ptr %26, i32 0, i32 8
  %28 = load i64, ptr %27, align 8, !tbaa !59
  %29 = load i64, ptr %7, align 8, !tbaa !56
  %30 = icmp ult i64 %28, %29
  br i1 %30, label %31, label %35

31:                                               ; preds = %25
  %32 = load ptr, ptr %5, align 8, !tbaa !53
  %33 = getelementptr inbounds nuw %struct._rio, ptr %32, i32 0, i32 8
  %34 = load i64, ptr %33, align 8, !tbaa !59
  br label %37

35:                                               ; preds = %25, %20
  %36 = load i64, ptr %7, align 8, !tbaa !56
  br label %37

37:                                               ; preds = %35, %31
  %38 = phi i64 [ %34, %31 ], [ %36, %35 ]
  store i64 %38, ptr %8, align 8, !tbaa !56
  %39 = load ptr, ptr %5, align 8, !tbaa !53
  %40 = getelementptr inbounds nuw %struct._rio, ptr %39, i32 0, i32 0
  %41 = load ptr, ptr %40, align 8, !tbaa !66
  %42 = load ptr, ptr %5, align 8, !tbaa !53
  %43 = load ptr, ptr %6, align 8, !tbaa !55
  %44 = load i64, ptr %8, align 8, !tbaa !56
  %45 = call i64 %41(ptr noundef %42, ptr noundef %43, i64 noundef %44)
  %46 = icmp eq i64 %45, 0
  br i1 %46, label %47, label %52

47:                                               ; preds = %37
  %48 = load ptr, ptr %5, align 8, !tbaa !53
  %49 = getelementptr inbounds nuw %struct._rio, ptr %48, i32 0, i32 6
  %50 = load i64, ptr %49, align 8, !tbaa !57
  %51 = or i64 %50, 1
  store i64 %51, ptr %49, align 8, !tbaa !57
  store i64 0, ptr %4, align 8
  store i32 1, ptr %9, align 4
  br label %76

52:                                               ; preds = %37
  %53 = load ptr, ptr %5, align 8, !tbaa !53
  %54 = getelementptr inbounds nuw %struct._rio, ptr %53, i32 0, i32 4
  %55 = load ptr, ptr %54, align 8, !tbaa !60
  %56 = icmp ne ptr %55, null
  br i1 %56, label %57, label %64

57:                                               ; preds = %52
  %58 = load ptr, ptr %5, align 8, !tbaa !53
  %59 = getelementptr inbounds nuw %struct._rio, ptr %58, i32 0, i32 4
  %60 = load ptr, ptr %59, align 8, !tbaa !60
  %61 = load ptr, ptr %5, align 8, !tbaa !53
  %62 = load ptr, ptr %6, align 8, !tbaa !55
  %63 = load i64, ptr %8, align 8, !tbaa !56
  call void %60(ptr noundef %61, ptr noundef %62, i64 noundef %63)
  br label %64

64:                                               ; preds = %57, %52
  %65 = load ptr, ptr %6, align 8, !tbaa !55
  %66 = load i64, ptr %8, align 8, !tbaa !56
  %67 = getelementptr inbounds nuw i8, ptr %65, i64 %66
  store ptr %67, ptr %6, align 8, !tbaa !55
  %68 = load i64, ptr %8, align 8, !tbaa !56
  %69 = load i64, ptr %7, align 8, !tbaa !56
  %70 = sub i64 %69, %68
  store i64 %70, ptr %7, align 8, !tbaa !56
  %71 = load i64, ptr %8, align 8, !tbaa !56
  %72 = load ptr, ptr %5, align 8, !tbaa !53
  %73 = getelementptr inbounds nuw %struct._rio, ptr %72, i32 0, i32 7
  %74 = load i64, ptr %73, align 8, !tbaa !62
  %75 = add i64 %74, %71
  store i64 %75, ptr %73, align 8, !tbaa !62
  store i32 0, ptr %9, align 4
  br label %76

76:                                               ; preds = %64, %47
  call void @llvm.lifetime.end.p0(i64 8, ptr %8) #15
  %77 = load i32, ptr %9, align 4
  switch i32 %77, label %82 [
    i32 0, label %78
    i32 1, label %80
  ]

78:                                               ; preds = %76
  br label %17, !llvm.loop !67

79:                                               ; preds = %17
  store i64 1, ptr %4, align 8
  br label %80

80:                                               ; preds = %79, %76, %15
  %81 = load i64, ptr %4, align 8
  ret i64 %81

82:                                               ; preds = %76
  unreachable
}

; Function Attrs: nounwind uwtable
define dso_local i32 @rdbLoadBinaryDoubleValue(ptr noundef %0, ptr noundef %1) #0 {
  %3 = alloca i32, align 4
  %4 = alloca ptr, align 8
  %5 = alloca ptr, align 8
  store ptr %0, ptr %4, align 8, !tbaa !53
  store ptr %1, ptr %5, align 8, !tbaa !80
  %6 = load ptr, ptr %4, align 8, !tbaa !53
  %7 = load ptr, ptr %5, align 8, !tbaa !80
  %8 = call i64 @rioRead(ptr noundef %6, ptr noundef %7, i64 noundef 8)
  %9 = icmp eq i64 %8, 0
  br i1 %9, label %10, label %11

10:                                               ; preds = %2
  store i32 -1, ptr %3, align 4
  br label %12

11:                                               ; preds = %2
  store i32 0, ptr %3, align 4
  br label %12

12:                                               ; preds = %11, %10
  %13 = load i32, ptr %3, align 4
  ret i32 %13
}

; Function Attrs: nounwind uwtable
define dso_local i32 @rdbLoadBinaryFloatValue(ptr noundef %0, ptr noundef %1) #0 {
  %3 = alloca i32, align 4
  %4 = alloca ptr, align 8
  %5 = alloca ptr, align 8
  store ptr %0, ptr %4, align 8, !tbaa !53
  store ptr %1, ptr %5, align 8, !tbaa !83
  %6 = load ptr, ptr %4, align 8, !tbaa !53
  %7 = load ptr, ptr %5, align 8, !tbaa !83
  %8 = call i64 @rioRead(ptr noundef %6, ptr noundef %7, i64 noundef 4)
  %9 = icmp eq i64 %8, 0
  br i1 %9, label %10, label %11

10:                                               ; preds = %2
  store i32 -1, ptr %3, align 4
  br label %12

11:                                               ; preds = %2
  store i32 0, ptr %3, align 4
  br label %12

12:                                               ; preds = %11, %10
  %13 = load i32, ptr %3, align 4
  ret i32 %13
}

; Function Attrs: nounwind uwtable
define dso_local i64 @rdbLoadLen(ptr noundef %0, ptr noundef %1) #0 {
  %3 = alloca i64, align 8
  %4 = alloca ptr, align 8
  %5 = alloca ptr, align 8
  %6 = alloca i64, align 8
  %7 = alloca i32, align 4
  store ptr %0, ptr %4, align 8, !tbaa !53
  store ptr %1, ptr %5, align 8, !tbaa !69
  call void @llvm.lifetime.start.p0(i64 8, ptr %6) #15
  %8 = load ptr, ptr %4, align 8, !tbaa !53
  %9 = load ptr, ptr %5, align 8, !tbaa !69
  %10 = call i32 @rdbLoadLenByRef(ptr noundef %8, ptr noundef %9, ptr noundef %6)
  %11 = icmp eq i32 %10, -1
  br i1 %11, label %12, label %13

12:                                               ; preds = %2
  store i64 -1, ptr %3, align 8
  store i32 1, ptr %7, align 4
  br label %15

13:                                               ; preds = %2
  %14 = load i64, ptr %6, align 8, !tbaa !56
  store i64 %14, ptr %3, align 8
  store i32 1, ptr %7, align 4
  br label %15

15:                                               ; preds = %13, %12
  call void @llvm.lifetime.end.p0(i64 8, ptr %6) #15
  %16 = load i64, ptr %3, align 8
  ret i64 %16
}

; Function Attrs: nounwind uwtable
define dso_local ptr @rdbLoadCheckModuleValue(ptr noundef %0, ptr noundef %1) #0 {
  %3 = alloca ptr, align 8
  %4 = alloca ptr, align 8
  %5 = alloca i64, align 8
  %6 = alloca i64, align 8
  %7 = alloca ptr, align 8
  %8 = alloca float, align 4
  %9 = alloca double, align 8
  store ptr %0, ptr %3, align 8, !tbaa !53
  store ptr %1, ptr %4, align 8, !tbaa !9
  call void @llvm.lifetime.start.p0(i64 8, ptr %5) #15
  br label %10

10:                                               ; preds = %62, %2
  %11 = load ptr, ptr %3, align 8, !tbaa !53
  %12 = call i64 @rdbLoadLen(ptr noundef %11, ptr noundef null)
  store i64 %12, ptr %5, align 8, !tbaa !56
  %13 = icmp ne i64 %12, 0
  br i1 %13, label %14, label %63

14:                                               ; preds = %10
  %15 = load i64, ptr %5, align 8, !tbaa !56
  %16 = icmp eq i64 %15, 1
  br i1 %16, label %20, label %17

17:                                               ; preds = %14
  %18 = load i64, ptr %5, align 8, !tbaa !56
  %19 = icmp eq i64 %18, 2
  br i1 %19, label %20, label %27

20:                                               ; preds = %17, %14
  call void @llvm.lifetime.start.p0(i64 8, ptr %6) #15
  %21 = load ptr, ptr %3, align 8, !tbaa !53
  %22 = call i32 @rdbLoadLenByRef(ptr noundef %21, ptr noundef null, ptr noundef %6)
  %23 = icmp eq i32 %22, -1
  br i1 %23, label %24, label %26

24:                                               ; preds = %20
  %25 = load ptr, ptr %4, align 8, !tbaa !9
  call void (i32, i32, ptr, ...) @rdbReportError(i32 noundef 1, i32 noundef 1715, ptr noundef @.str.49, ptr noundef %25)
  br label %26

26:                                               ; preds = %24, %20
  call void @llvm.lifetime.end.p0(i64 8, ptr %6) #15
  br label %62

27:                                               ; preds = %17
  %28 = load i64, ptr %5, align 8, !tbaa !56
  %29 = icmp eq i64 %28, 5
  br i1 %29, label %30, label %39

30:                                               ; preds = %27
  call void @llvm.lifetime.start.p0(i64 8, ptr %7) #15
  %31 = load ptr, ptr %3, align 8, !tbaa !53
  %32 = call ptr @rdbGenericLoadStringObject(ptr noundef %31, i32 noundef 0, ptr noundef null)
  store ptr %32, ptr %7, align 8, !tbaa !76
  %33 = load ptr, ptr %7, align 8, !tbaa !76
  %34 = icmp eq ptr %33, null
  br i1 %34, label %35, label %37

35:                                               ; preds = %30
  %36 = load ptr, ptr %4, align 8, !tbaa !9
  call void (i32, i32, ptr, ...) @rdbReportError(i32 noundef 1, i32 noundef 1721, ptr noundef @.str.50, ptr noundef %36)
  br label %37

37:                                               ; preds = %35, %30
  %38 = load ptr, ptr %7, align 8, !tbaa !76
  call void @decrRefCount(ptr noundef %38)
  call void @llvm.lifetime.end.p0(i64 8, ptr %7) #15
  br label %61

39:                                               ; preds = %27
  %40 = load i64, ptr %5, align 8, !tbaa !56
  %41 = icmp eq i64 %40, 3
  br i1 %41, label %42, label %49

42:                                               ; preds = %39
  call void @llvm.lifetime.start.p0(i64 4, ptr %8) #15
  %43 = load ptr, ptr %3, align 8, !tbaa !53
  %44 = call i32 @rdbLoadBinaryFloatValue(ptr noundef %43, ptr noundef %8)
  %45 = icmp eq i32 %44, -1
  br i1 %45, label %46, label %48

46:                                               ; preds = %42
  %47 = load ptr, ptr %4, align 8, !tbaa !9
  call void (i32, i32, ptr, ...) @rdbReportError(i32 noundef 1, i32 noundef 1728, ptr noundef @.str.51, ptr noundef %47)
  br label %48

48:                                               ; preds = %46, %42
  call void @llvm.lifetime.end.p0(i64 4, ptr %8) #15
  br label %60

49:                                               ; preds = %39
  %50 = load i64, ptr %5, align 8, !tbaa !56
  %51 = icmp eq i64 %50, 4
  br i1 %51, label %52, label %59

52:                                               ; preds = %49
  call void @llvm.lifetime.start.p0(i64 8, ptr %9) #15
  %53 = load ptr, ptr %3, align 8, !tbaa !53
  %54 = call i32 @rdbLoadBinaryDoubleValue(ptr noundef %53, ptr noundef %9)
  %55 = icmp eq i32 %54, -1
  br i1 %55, label %56, label %58

56:                                               ; preds = %52
  %57 = load ptr, ptr %4, align 8, !tbaa !9
  call void (i32, i32, ptr, ...) @rdbReportError(i32 noundef 1, i32 noundef 1734, ptr noundef @.str.52, ptr noundef %57)
  br label %58

58:                                               ; preds = %56, %52
  call void @llvm.lifetime.end.p0(i64 8, ptr %9) #15
  br label %59

59:                                               ; preds = %58, %49
  br label %60

60:                                               ; preds = %59, %48
  br label %61

61:                                               ; preds = %60, %37
  br label %62

62:                                               ; preds = %61, %26
  br label %10, !llvm.loop !220

63:                                               ; preds = %10
  %64 = call ptr @createStringObject(ptr noundef @.str.53, i64 noundef 18)
  call void @llvm.lifetime.end.p0(i64 8, ptr %5) #15
  ret ptr %64
}