; Function Attrs: nounwind uwtable
define dso_local ptr @rdbLoadCheckModuleValue(ptr noundef %0, ptr noundef %1) local_unnamed_addr #0 {
  %3 = alloca i64, align 8
  %4 = alloca i64, align 8
  %5 = alloca float, align 4
  %6 = alloca double, align 8
  call void @llvm.lifetime.start.p0(i64 8, ptr nonnull %3) #23
  %7 = call i32 @rdbLoadLenByRef(ptr noundef %0, ptr noundef null, ptr noundef nonnull %3)
  %8 = icmp eq i32 %7, -1
  %9 = load i64, ptr %3, align 8
  %.0.i24 = select i1 %8, i64 -1, i64 %9
  call void @llvm.lifetime.end.p0(i64 8, ptr nonnull %3) #23
  %.not25 = icmp eq i64 %.0.i24, 0
  br i1 %.not25, label %._crit_edge, label %.lr.ph

.lr.ph:                                           ; preds = %2
  %10 = getelementptr inbounds nuw i8, ptr %0, i64 48
  %11 = getelementptr inbounds nuw i8, ptr %0, i64 64
  %12 = getelementptr inbounds nuw i8, ptr %0, i64 32
  %13 = getelementptr inbounds nuw i8, ptr %0, i64 56
  br label %14

14:                                               ; preds = %.lr.ph, %66
  %.0.i26 = phi i64 [ %.0.i24, %.lr.ph ], [ %.0.i, %66 ]
  %or.cond = icmp ult i64 %.0.i26, 3
  br i1 %or.cond, label %15, label %20

15:                                               ; preds = %14
  call void @llvm.lifetime.start.p0(i64 8, ptr nonnull %4) #23
  %16 = call i32 @rdbLoadLenByRef(ptr noundef %0, ptr noundef null, ptr noundef nonnull %4)
  %17 = icmp eq i32 %16, -1
  br i1 %17, label %18, label %19

18:                                               ; preds = %15
  call void (i32, i32, ptr, ...) @rdbReportError(i32 noundef 1, i32 noundef 1715, ptr noundef nonnull @.str.49, ptr noundef %1)
  br label %19

19:                                               ; preds = %18, %15
  call void @llvm.lifetime.end.p0(i64 8, ptr nonnull %4) #23
  br label %66

20:                                               ; preds = %14
  switch i64 %.0.i26, label %66 [
    i64 5, label %21
    i64 3, label %26
    i64 4, label %46
  ]

21:                                               ; preds = %20
  %22 = call ptr @rdbGenericLoadStringObject(ptr noundef %0, i32 noundef 0, ptr noundef null)
  %23 = icmp eq ptr %22, null
  br i1 %23, label %24, label %25

24:                                               ; preds = %21
  call void (i32, i32, ptr, ...) @rdbReportError(i32 noundef 1, i32 noundef 1721, ptr noundef nonnull @.str.50, ptr noundef %1)
  br label %25

25:                                               ; preds = %24, %21
  call void @decrRefCount(ptr noundef %22) #23
  br label %66

26:                                               ; preds = %20
  call void @llvm.lifetime.start.p0(i64 4, ptr nonnull %5) #23
  %27 = load i64, ptr %10, align 8, !tbaa !53
  %28 = and i64 %27, 5
  %.not.i.i = icmp eq i64 %28, 0
  br i1 %.not.i.i, label %.preheader.i.i, label %45

.preheader.i.i:                                   ; preds = %26, %40
  %.02539.i.i = phi i64 [ %42, %40 ], [ 4, %26 ]
  %.02738.i.i = phi ptr [ %41, %40 ], [ %5, %26 ]
  %29 = load i64, ptr %11, align 8, !tbaa !55
  %.not32.not.i.i = icmp eq i64 %29, 0
  %30 = call i64 @llvm.umin.i64(i64 %29, i64 %.02539.i.i)
  %31 = select i1 %.not32.not.i.i, i64 %.02539.i.i, i64 %30
  %32 = load ptr, ptr %0, align 8, !tbaa !60
  %33 = call i64 %32(ptr noundef nonnull %0, ptr noundef %.02738.i.i, i64 noundef %31) #23
  %34 = icmp eq i64 %33, 0
  br i1 %34, label %.thread.i.i, label %37

.thread.i.i:                                      ; preds = %.preheader.i.i
  %35 = load i64, ptr %10, align 8, !tbaa !53
  %36 = or i64 %35, 1
  store i64 %36, ptr %10, align 8, !tbaa !53
  br label %45

37:                                               ; preds = %.preheader.i.i
  %38 = load ptr, ptr %12, align 8, !tbaa !56
  %.not33.i.i = icmp eq ptr %38, null
  br i1 %.not33.i.i, label %40, label %39

39:                                               ; preds = %37
  call void %38(ptr noundef nonnull %0, ptr noundef %.02738.i.i, i64 noundef %31) #23
  br label %40

40:                                               ; preds = %39, %37
  %41 = getelementptr inbounds nuw i8, ptr %.02738.i.i, i64 %31
  %42 = sub i64 %.02539.i.i, %31
  %43 = load i64, ptr %13, align 8, !tbaa !58
  %44 = add i64 %43, %31
  store i64 %44, ptr %13, align 8, !tbaa !58
  %.not31.i.i = icmp eq i64 %42, 0
  br i1 %.not31.i.i, label %rdbLoadBinaryFloatValue.exit, label %.preheader.i.i

45:                                               ; preds = %26, %.thread.i.i
  call void (i32, i32, ptr, ...) @rdbReportError(i32 noundef 1, i32 noundef 1728, ptr noundef nonnull @.str.51, ptr noundef %1)
  br label %rdbLoadBinaryFloatValue.exit

rdbLoadBinaryFloatValue.exit:                     ; preds = %40, %45
  call void @llvm.lifetime.end.p0(i64 4, ptr nonnull %5) #23
  br label %66

46:                                               ; preds = %20
  call void @llvm.lifetime.start.p0(i64 8, ptr nonnull %6) #23
  %47 = load i64, ptr %10, align 8, !tbaa !53
  %48 = and i64 %47, 5
  %.not.i.i16 = icmp eq i64 %48, 0
  br i1 %.not.i.i16, label %.preheader.i.i17, label %65

.preheader.i.i17:                                 ; preds = %46, %60
  %.02539.i.i18 = phi i64 [ %62, %60 ], [ 8, %46 ]
  %.02738.i.i19 = phi ptr [ %61, %60 ], [ %6, %46 ]
  %49 = load i64, ptr %11, align 8, !tbaa !55
  %.not32.not.i.i20 = icmp eq i64 %49, 0
  %50 = call i64 @llvm.umin.i64(i64 %49, i64 %.02539.i.i18)
  %51 = select i1 %.not32.not.i.i20, i64 %.02539.i.i18, i64 %50
  %52 = load ptr, ptr %0, align 8, !tbaa !60
  %53 = call i64 %52(ptr noundef nonnull %0, ptr noundef %.02738.i.i19, i64 noundef %51) #23
  %54 = icmp eq i64 %53, 0
  br i1 %54, label %.thread.i.i23, label %57

.thread.i.i23:                                    ; preds = %.preheader.i.i17
  %55 = load i64, ptr %10, align 8, !tbaa !53
  %56 = or i64 %55, 1
  store i64 %56, ptr %10, align 8, !tbaa !53
  br label %65

57:                                               ; preds = %.preheader.i.i17
  %58 = load ptr, ptr %12, align 8, !tbaa !56
  %.not33.i.i21 = icmp eq ptr %58, null
  br i1 %.not33.i.i21, label %60, label %59

59:                                               ; preds = %57
  call void %58(ptr noundef nonnull %0, ptr noundef %.02738.i.i19, i64 noundef %51) #23
  br label %60

60:                                               ; preds = %59, %57
  %61 = getelementptr inbounds nuw i8, ptr %.02738.i.i19, i64 %51
  %62 = sub i64 %.02539.i.i18, %51
  %63 = load i64, ptr %13, align 8, !tbaa !58
  %64 = add i64 %63, %51
  store i64 %64, ptr %13, align 8, !tbaa !58
  %.not31.i.i22 = icmp eq i64 %62, 0
  br i1 %.not31.i.i22, label %rdbLoadBinaryDoubleValue.exit, label %.preheader.i.i17

65:                                               ; preds = %46, %.thread.i.i23
  call void (i32, i32, ptr, ...) @rdbReportError(i32 noundef 1, i32 noundef 1734, ptr noundef nonnull @.str.52, ptr noundef %1)
  br label %rdbLoadBinaryDoubleValue.exit

rdbLoadBinaryDoubleValue.exit:                    ; preds = %60, %65
  call void @llvm.lifetime.end.p0(i64 8, ptr nonnull %6) #23
  br label %66

66:                                               ; preds = %20, %25, %rdbLoadBinaryDoubleValue.exit, %rdbLoadBinaryFloatValue.exit, %19
  call void @llvm.lifetime.start.p0(i64 8, ptr nonnull %3) #23
  %67 = call i32 @rdbLoadLenByRef(ptr noundef %0, ptr noundef null, ptr noundef nonnull %3)
  %68 = icmp eq i32 %67, -1
  %69 = load i64, ptr %3, align 8
  %.0.i = select i1 %68, i64 -1, i64 %69
  call void @llvm.lifetime.end.p0(i64 8, ptr nonnull %3) #23
  %.not = icmp eq i64 %.0.i, 0
  br i1 %.not, label %._crit_edge, label %14, !llvm.loop !179

._crit_edge:                                      ; preds = %66, %2
  %70 = call ptr @createStringObject(ptr noundef nonnull @.str.53, i64 noundef 18) #23
  ret ptr %70
}